target datalayout = "e-m:e-p270:32:32-p271:32:32-p272:64:64-i64:64-i128:128-f80:128-n8:16:32:64-S128"
target triple = "x86_64-pc-linux-gnu"

%struct._fvalue_t = type { ptr, %union.anon.1 }
%union.anon.1 = type { %struct._protocol_value_t }
%struct._protocol_value_t = type { ptr, i32, ptr, i8 }

@.str.56 = private unnamed_addr constant [32 x i8] c"sint64_divide: division by zero\00", align 1
@.str.57 = private unnamed_addr constant [24 x i8] c"sint64_divide: overflow\00", align 1

; Function Attrs: inlinehint nounwind null_pointer_is_valid sspstrong uwtable
define internal zeroext i1 @psnip_safe_int64_div(ptr noundef %0, i64 noundef %1, i64 noundef %2) #8 {
  %4 = alloca i1, align 1
  %5 = alloca ptr, align 8
  %6 = alloca i64, align 8
  %7 = alloca i64, align 8
  store ptr %0, ptr %5, align 8
  store i64 %1, ptr %6, align 8
  store i64 %2, ptr %7, align 8
  %8 = load i64, ptr %7, align 8
  %9 = icmp eq i64 %8, 0
  %10 = xor i1 %9, true
  %11 = xor i1 %10, true
  %12 = zext i1 %11 to i32
  %13 = sext i32 %12 to i64
  %14 = call i64 @llvm.expect.i64(i64 %13, i64 0)
  %15 = icmp ne i64 %14, 0
  br i1 %15, label %16, label %18

16:                                               ; preds = %3
  %17 = load ptr, ptr %5, align 8
  store i64 0, ptr %17, align 8
  store i1 false, ptr %4, align 1
  br label %39

18:                                               ; preds = %3
  %19 = load i64, ptr %6, align 8
  %20 = icmp eq i64 %19, -9223372036854775808
  br i1 %20, label %21, label %24

21:                                               ; preds = %18
  %22 = load i64, ptr %7, align 8
  %23 = icmp eq i64 %22, -1
  br label %24

24:                                               ; preds = %21, %18
  %25 = phi i1 [ false, %18 ], [ %23, %21 ]
  %26 = xor i1 %25, true
  %27 = xor i1 %26, true
  %28 = zext i1 %27 to i32
  %29 = sext i32 %28 to i64
  %30 = call i64 @llvm.expect.i64(i64 %29, i64 0)
  %31 = icmp ne i64 %30, 0
  br i1 %31, label %32, label %34

32:                                               ; preds = %24
  %33 = load ptr, ptr %5, align 8
  store i64 -9223372036854775808, ptr %33, align 8
  store i1 false, ptr %4, align 1
  br label %39

34:                                               ; preds = %24
  %35 = load i64, ptr %6, align 8
  %36 = load i64, ptr %7, align 8
  %37 = sdiv i64 %35, %36
  %38 = load ptr, ptr %5, align 8
  store i64 %37, ptr %38, align 8
  store i1 true, ptr %4, align 1
  br label %39

39:                                               ; preds = %34, %32, %16
  %40 = load i1, ptr %4, align 1
  ret i1 %40
}

; Function Attrs: null_pointer_is_valid sspstrong uwtable
define internal i32 @sint64_divide(ptr noundef %0, ptr noundef %1, ptr noundef %2, ptr noundef %3) #0 {
  %5 = alloca i32, align 4
  %6 = alloca ptr, align 8
  %7 = alloca ptr, align 8
  %8 = alloca ptr, align 8
  %9 = alloca ptr, align 8
  store ptr %0, ptr %6, align 8
  store ptr %1, ptr %7, align 8
  store ptr %2, ptr %8, align 8
  store ptr %3, ptr %9, align 8
  %10 = load ptr, ptr %8, align 8
  %11 = getelementptr inbounds nuw %struct._fvalue_t, ptr %10, i32 0, i32 1
  %12 = load i64, ptr %11, align 8
  %13 = icmp eq i64 %12, 0
  br i1 %13, label %14, label %17

14:                                               ; preds = %4
  %15 = call noalias ptr (ptr, ptr, ...) @wmem_strdup_printf(ptr noundef null, ptr noundef @.str.56)
  %16 = load ptr, ptr %9, align 8
  store ptr %15, ptr %16, align 8
  store i32 4, ptr %5, align 4
  br label %31

17:                                               ; preds = %4
  %18 = load ptr, ptr %6, align 8
  %19 = getelementptr inbounds nuw %struct._fvalue_t, ptr %18, i32 0, i32 1
  %20 = load ptr, ptr %7, align 8
  %21 = getelementptr inbounds nuw %struct._fvalue_t, ptr %20, i32 0, i32 1
  %22 = load i64, ptr %21, align 8
  %23 = load ptr, ptr %8, align 8
  %24 = getelementptr inbounds nuw %struct._fvalue_t, ptr %23, i32 0, i32 1
  %25 = load i64, ptr %24, align 8
  %26 = call zeroext i1 @psnip_safe_int64_div(ptr noundef %19, i64 noundef %22, i64 noundef %25)
  br i1 %26, label %30, label %27

27:                                               ; preds = %17
  %28 = call noalias ptr (ptr, ptr, ...) @wmem_strdup_printf(ptr noundef null, ptr noundef @.str.57)
  %29 = load ptr, ptr %9, align 8
  store ptr %28, ptr %29, align 8
  store i32 4, ptr %5, align 4
  br label %31

30:                                               ; preds = %17
  store i32 0, ptr %5, align 4
  br label %31

31:                                               ; preds = %30, %27, %14
  %32 = load i32, ptr %5, align 4
  ret i32 %32
}