; Function Attrs: null_pointer_is_valid sspstrong uwtable
define internal range(i32 0, 5) i32 @sint64_divide(ptr noundef writeonly captures(none) %0, ptr noundef readonly captures(none) %1, ptr noundef readonly captures(none) %2, ptr noundef writeonly captures(none) %3) #0 {
  %5 = getelementptr inbounds nuw i8, ptr %2, i64 8
  %6 = load i64, ptr %5, align 8
  %7 = icmp eq i64 %6, 0
  br i1 %7, label %8, label %10

8:                                                ; preds = %4
  %9 = tail call noalias ptr (ptr, ptr, ...) @wmem_strdup_printf(ptr noundef null, ptr noundef nonnull @.str.56)
  store ptr %9, ptr %3, align 8
  br label %19

10:                                               ; preds = %4
  %11 = getelementptr inbounds nuw i8, ptr %0, i64 8
  %12 = getelementptr inbounds nuw i8, ptr %1, i64 8
  %13 = load i64, ptr %12, align 8
  %14 = icmp ne i64 %13, -9223372036854775808
  %15 = icmp ne i64 %6, -1
  %.not10.i = or i1 %15, %14
  br i1 %.not10.i, label %psnip_safe_int64_div.exit.thread, label %17, !prof !6

psnip_safe_int64_div.exit.thread:                 ; preds = %10
  %16 = sdiv i64 %13, %6
  store i64 %16, ptr %11, align 8
  br label %19

17:                                               ; preds = %10
  store i64 -9223372036854775808, ptr %11, align 8
  %18 = tail call noalias ptr (ptr, ptr, ...) @wmem_strdup_printf(ptr noundef null, ptr noundef nonnull @.str.57)
  store ptr %18, ptr %3, align 8
  br label %19

19:                                               ; preds = %psnip_safe_int64_div.exit.thread, %17, %8
  %.0 = phi i32 [ 4, %8 ], [ 4, %17 ], [ 0, %psnip_safe_int64_div.exit.thread ]
  ret i32 %.0
}